; Function Attrs: mustprogress uwtable
define void @_ZN6google8protobuf2io25CopyingInputStreamAdaptor22AllocateBufferIfNeededEv(ptr nocapture noundef nonnull align 8 dereferenceable(52) %0) local_unnamed_addr #5 align 2 {
  %2 = getelementptr inbounds i8, ptr %0, i64 32
  %3 = load ptr, ptr %2, align 8
  %4 = icmp eq ptr %3, null
  br i1 %4, label %_ZNSt10unique_ptrIA_hSt14default_deleteIS0_EE5resetIPhvEEvT_.exit, label %9

_ZNSt10unique_ptrIA_hSt14default_deleteIS0_EE5resetIPhvEEvT_.exit: ; preds = %1
  %5 = getelementptr inbounds i8, ptr %0, i64 40
  %6 = load i32, ptr %5, align 8
  %7 = sext i32 %6 to i64
  %8 = tail call noalias noundef nonnull ptr @_Znam(i64 noundef %7) #18
  store ptr %8, ptr %2, align 8
  br label %9

9:                                                ; preds = %_ZNSt10unique_ptrIA_hSt14default_deleteIS0_EE5resetIPhvEEvT_.exit, %1
  ret void
}